target datalayout = "e-m:e-p270:32:32-p271:32:32-p272:64:64-i64:64-i128:128-f80:128-n8:16:32:64-S128"
target triple = "x86_64-pc-linux-gnu"

%struct.SDL_VideoDevice = type { ptr, ptr, ptr, ptr, ptr, ptr, ptr, ptr, ptr, ptr, ptr, ptr, ptr, ptr, ptr, ptr, ptr, ptr, ptr, ptr, ptr, ptr, ptr, ptr, ptr, ptr, ptr, ptr, ptr, ptr, ptr, ptr, ptr, ptr, ptr, ptr, ptr, ptr, ptr, ptr, ptr, ptr, ptr, ptr, ptr, ptr, ptr, ptr, ptr, ptr, ptr, ptr, ptr, ptr, ptr, ptr, ptr, ptr, ptr, ptr, ptr, ptr, ptr, ptr, ptr, ptr, ptr, ptr, ptr, ptr, ptr, ptr, ptr, ptr, ptr, ptr, ptr, ptr, ptr, ptr, ptr, ptr, ptr, ptr, ptr, ptr, ptr, ptr, ptr, ptr, ptr, ptr, ptr, ptr, ptr, ptr, ptr, i64, i8, i8, i8, ptr, i32, ptr, %struct.SDL_Rect, ptr, ptr, i32, ptr, ptr, ptr, ptr, i64, ptr, i8, i32, i32, %struct.anon, ptr, ptr, ptr, ptr, ptr, ptr, %struct.SDL_AtomicInt, %struct.SDL_AtomicInt, i8, %struct.anon.0, ptr, ptr, ptr, ptr, ptr }
%struct.SDL_Rect = type { i32, i32, i32, i32 }
%struct.anon = type { i32, i32, i32, i32, i32, i32, i32, i32, i32, i32, i32, i32, i32, i32, i32, i32, i32, i32, i32, i32, i32, i32, i32, i32, i32, i32, i32, i32, i32, [256 x i8], ptr }
%struct.SDL_AtomicInt = type { i32 }
%struct.anon.0 = type { ptr, ptr, i32, [256 x i8], ptr }
%struct.SDL_VideoData = type { i8, ptr, i32, ptr, ptr, ptr, ptr, i32, %struct.anon.1, ptr, ptr, ptr, ptr, ptr, ptr, ptr, ptr, ptr, ptr, ptr, ptr, ptr, ptr, ptr, ptr, ptr, ptr, ptr, ptr, ptr, ptr, %struct.wl_list, ptr, ptr, ptr, ptr, i32, i32, i8, i8 }
%struct.anon.1 = type { ptr }
%struct.wl_list = type { ptr, ptr }
%struct.SDL_WaylandSeat = type { ptr, ptr, ptr, ptr, ptr, %struct.wl_list, i32, i32, %struct.anon.2, %struct.anon.4, %struct.anon.7, %struct.anon.8, %struct.anon.9 }
%struct.anon.2 = type { ptr, ptr, ptr, ptr, ptr, %struct.SDL_WaylandKeyboardRepeat, i64, i16, i16, i32, i8, %struct.anon.3 }
%struct.SDL_WaylandKeyboardRepeat = type { i32, i32, i32, i8, i8, i32, i64, i64, i64, i32, [8 x i8] }
%struct.anon.3 = type { ptr, ptr, ptr, ptr, i32, i32, i32, i32, i32, i32, i32, i32, i32, i32, i32 }
%struct.anon.4 = type { ptr, ptr, ptr, ptr, ptr, ptr, ptr, ptr, i64, i32, i32, %struct.SDL_Point, i32, %struct.anon.5, %struct.anon.6 }
%struct.SDL_Point = type { i32, i32 }
%struct.anon.5 = type { i32, float, i32, float, i64, i32 }
%struct.anon.6 = type { ptr, ptr, ptr, i64, i64, i32 }
%struct.anon.7 = type { ptr, ptr, i64, %struct.wl_list }
%struct.anon.8 = type { ptr, %struct.SDL_Rect, i8, i8 }
%struct.anon.9 = type { ptr, %struct.wl_list }
%struct.SDL_WaylandPrimarySelectionDevice = type { ptr, ptr, i32, ptr, ptr }

@text_mime_types = internal global [5 x ptr] [ptr @.str.1, ptr @.str.3, ptr @.str.4, ptr @.str.5, ptr @.str.6], align 16

; Function Attrs: nounwind uwtable
define hidden ptr @Wayland_GetTextMimeTypes(ptr noundef %0, ptr noundef %1) #0 {
  %3 = alloca ptr, align 8
  %4 = alloca ptr, align 8
  store ptr %0, ptr %3, align 8
  store ptr %1, ptr %4, align 8
  %5 = load ptr, ptr %4, align 8
  store i64 5, ptr %5, align 8
  ret ptr @text_mime_types
}

; Function Attrs: nounwind uwtable
define hidden zeroext i1 @Wayland_HasPrimarySelectionText(ptr noundef %0) #0 {
  %2 = alloca ptr, align 8
  %3 = alloca ptr, align 8
  %4 = alloca ptr, align 8
  %5 = alloca i8, align 1
  %6 = alloca ptr, align 8
  %7 = alloca i64, align 8
  %8 = alloca ptr, align 8
  %9 = alloca i64, align 8
  %10 = alloca i32, align 4
  store ptr %0, ptr %2, align 8
  call void @llvm.lifetime.start.p0(i64 8, ptr %3) #3
  %11 = load ptr, ptr %2, align 8
  %12 = getelementptr inbounds nuw %struct.SDL_VideoDevice, ptr %11, i32 0, i32 128
  %13 = load ptr, ptr %12, align 8
  store ptr %13, ptr %3, align 8
  call void @llvm.lifetime.start.p0(i64 8, ptr %4) #3
  %14 = load ptr, ptr %3, align 8
  %15 = getelementptr inbounds nuw %struct.SDL_VideoData, ptr %14, i32 0, i32 34
  %16 = load ptr, ptr %15, align 8
  store ptr %16, ptr %4, align 8
  call void @llvm.lifetime.start.p0(i64 1, ptr %5) #3
  store i8 0, ptr %5, align 1
  %17 = load ptr, ptr %4, align 8
  %18 = icmp ne ptr %17, null
  br i1 %18, label %19, label %58

19:                                               ; preds = %1
  %20 = load ptr, ptr %4, align 8
  %21 = getelementptr inbounds nuw %struct.SDL_WaylandSeat, ptr %20, i32 0, i32 3
  %22 = load ptr, ptr %21, align 8
  %23 = icmp ne ptr %22, null
  br i1 %23, label %24, label %58

24:                                               ; preds = %19
  call void @llvm.lifetime.start.p0(i64 8, ptr %6) #3
  %25 = load ptr, ptr %4, align 8
  %26 = getelementptr inbounds nuw %struct.SDL_WaylandSeat, ptr %25, i32 0, i32 3
  %27 = load ptr, ptr %26, align 8
  store ptr %27, ptr %6, align 8
  %28 = load ptr, ptr %6, align 8
  %29 = getelementptr inbounds nuw %struct.SDL_WaylandPrimarySelectionDevice, ptr %28, i32 0, i32 3
  %30 = load ptr, ptr %29, align 8
  %31 = icmp ne ptr %30, null
  br i1 %31, label %32, label %33

32:                                               ; preds = %24
  store i8 1, ptr %5, align 1
  br label %57

33:                                               ; preds = %24
  call void @llvm.lifetime.start.p0(i64 8, ptr %7) #3
  store i64 0, ptr %7, align 8
  call void @llvm.lifetime.start.p0(i64 8, ptr %8) #3
  %34 = load ptr, ptr %2, align 8
  %35 = call ptr @Wayland_GetTextMimeTypes(ptr noundef %34, ptr noundef %7)
  store ptr %35, ptr %8, align 8
  call void @llvm.lifetime.start.p0(i64 8, ptr %9) #3
  store i64 0, ptr %9, align 8
  br label %36

36:                                               ; preds = %52, %33
  %37 = load i64, ptr %9, align 8
  %38 = load i64, ptr %7, align 8
  %39 = icmp ult i64 %37, %38
  br i1 %39, label %41, label %40

40:                                               ; preds = %36
  store i32 2, ptr %10, align 4
  br label %55

41:                                               ; preds = %36
  %42 = load ptr, ptr %6, align 8
  %43 = getelementptr inbounds nuw %struct.SDL_WaylandPrimarySelectionDevice, ptr %42, i32 0, i32 4
  %44 = load ptr, ptr %43, align 8
  %45 = load ptr, ptr %8, align 8
  %46 = load i64, ptr %9, align 8
  %47 = getelementptr inbounds nuw ptr, ptr %45, i64 %46
  %48 = load ptr, ptr %47, align 8
  %49 = call zeroext i1 @Wayland_primary_selection_offer_has_mime(ptr noundef %44, ptr noundef %48)
  br i1 %49, label %50, label %51

50:                                               ; preds = %41
  store i8 1, ptr %5, align 1
  store i32 2, ptr %10, align 4
  br label %55

51:                                               ; preds = %41
  br label %52

52:                                               ; preds = %51
  %53 = load i64, ptr %9, align 8
  %54 = add i64 %53, 1
  store i64 %54, ptr %9, align 8
  br label %36, !llvm.loop !7

55:                                               ; preds = %50, %40
  call void @llvm.lifetime.end.p0(i64 8, ptr %9) #3
  br label %56

56:                                               ; preds = %55
  call void @llvm.lifetime.end.p0(i64 8, ptr %8) #3
  call void @llvm.lifetime.end.p0(i64 8, ptr %7) #3
  br label %57

57:                                               ; preds = %56, %32
  call void @llvm.lifetime.end.p0(i64 8, ptr %6) #3
  br label %58

58:                                               ; preds = %57, %19, %1
  %59 = load i8, ptr %5, align 1, !range !3, !noundef !4
  %60 = trunc i8 %59 to i1
  store i32 1, ptr %10, align 4
  call void @llvm.lifetime.end.p0(i64 1, ptr %5) #3
  call void @llvm.lifetime.end.p0(i64 8, ptr %4) #3
  call void @llvm.lifetime.end.p0(i64 8, ptr %3) #3
  ret i1 %60
}