; Function Attrs: nounwind uwtable
define hidden noundef zeroext i1 @Wayland_HasPrimarySelectionText(ptr noundef readonly captures(none) %0) local_unnamed_addr #0 {
  %2 = getelementptr inbounds nuw i8, ptr %0, i64 1656
  %3 = load ptr, ptr %2, align 8
  %4 = getelementptr inbounds nuw i8, ptr %3, i64 280
  %5 = load ptr, ptr %4, align 8
  %.not = icmp eq ptr %5, null
  br i1 %.not, label %.loopexit, label %6

6:                                                ; preds = %1
  %7 = getelementptr inbounds nuw i8, ptr %5, i64 24
  %8 = load ptr, ptr %7, align 8
  %.not15 = icmp eq ptr %8, null
  br i1 %.not15, label %.loopexit, label %9

9:                                                ; preds = %6
  %10 = getelementptr inbounds nuw i8, ptr %8, i64 24
  %11 = load ptr, ptr %10, align 8
  %.not16 = icmp eq ptr %11, null
  br i1 %.not16, label %.preheader, label %.loopexit

.preheader:                                       ; preds = %9
  %12 = getelementptr inbounds nuw i8, ptr %8, i64 32
  br label %13

13:                                               ; preds = %13, %.preheader
  %.017 = phi i64 [ 0, %.preheader ], [ %18, %13 ]
  %14 = load ptr, ptr %12, align 8
  %15 = getelementptr inbounds nuw ptr, ptr @text_mime_types, i64 %.017
  %16 = load ptr, ptr %15, align 8
  %17 = tail call zeroext i1 @Wayland_primary_selection_offer_has_mime(ptr noundef %14, ptr noundef %16) #4
  %18 = add nuw nsw i64 %.017, 1
  %exitcond.not = icmp eq i64 %18, 5
  %or.cond = select i1 %17, i1 true, i1 %exitcond.not
  br i1 %or.cond, label %.loopexit, label %13, !llvm.loop !5

.loopexit:                                        ; preds = %13, %9, %6, %1
  %.012 = phi i1 [ false, %6 ], [ false, %1 ], [ true, %9 ], [ %17, %13 ]
  ret i1 %.012
}